target datalayout = "e-m:e-p270:32:32-p271:32:32-p272:64:64-i64:64-i128:128-f80:128-n8:16:32:64-S128"
target triple = "x86_64-pc-linux-gnu"

%struct.AVFilterContext = type { ptr, ptr, ptr, ptr, ptr, i32, ptr, ptr, i32, ptr, ptr, i32, i32, ptr, ptr, ptr, ptr, i32, ptr, i32, i32 }
%struct.AudioDialogueEnhancementContext = type { ptr, double, double, double, i32, i32, ptr, ptr, ptr, float, double, ptr, ptr, ptr, ptr, ptr, ptr, ptr, ptr, [2 x ptr], ptr, ptr, ptr }
%struct.AVChannelLayout = type { i32, i32, %union.anon.1, ptr }
%union.anon.1 = type { i64 }
%struct.AVFilterFormatsConfig = type { ptr, ptr, ptr, ptr, ptr }
%struct.AVFilterLink = type { ptr, ptr, ptr, ptr, i32, i32, i32, i32, %struct.AVRational, i32, i32, i32, %struct.AVChannelLayout, %struct.AVRational, ptr, i32, %struct.AVFilterFormatsConfig, %struct.AVFilterFormatsConfig }
%struct.AVRational = type { i32, i32 }
%struct.AVFrame = type { [8 x ptr], [8 x i32], ptr, i32, i32, i32, i32, i32, %struct.AVRational, i64, i64, %struct.AVRational, i32, ptr, i32, i32, [8 x ptr], ptr, i32, ptr, i32, i32, i32, i32, i32, i32, i32, i64, ptr, i32, ptr, ptr, i64, i64, i64, i64, ptr, %struct.AVChannelLayout, i64 }

; Function Attrs: inlinehint nounwind uwtable
define internal void @ff_outlink_set_status(ptr noundef %0, i32 noundef %1, i64 noundef %2) #9 {
  %4 = alloca ptr, align 8
  %5 = alloca i32, align 4
  %6 = alloca i64, align 8
  store ptr %0, ptr %4, align 8, !tbaa !37
  store i32 %1, ptr %5, align 4, !tbaa !28
  store i64 %2, ptr %6, align 8, !tbaa !48
  %7 = load ptr, ptr %4, align 8, !tbaa !37
  %8 = load i32, ptr %5, align 4, !tbaa !28
  %9 = load i64, ptr %6, align 8, !tbaa !48
  call void @ff_avfilter_link_set_in_status(ptr noundef %7, i32 noundef %8, i64 noundef %9)
  ret void
}

; Function Attrs: nounwind uwtable
define internal i32 @filter_frame(ptr noundef %0, ptr noundef %1) #1 {
  %3 = alloca ptr, align 8
  %4 = alloca ptr, align 8
  %5 = alloca ptr, align 8
  %6 = alloca ptr, align 8
  %7 = alloca ptr, align 8
  %8 = alloca ptr, align 8
  %9 = alloca i32, align 4
  store ptr %0, ptr %3, align 8, !tbaa !37
  store ptr %1, ptr %4, align 8, !tbaa !40
  call void @llvm.lifetime.start.p0(i64 8, ptr %5) #10
  %10 = load ptr, ptr %3, align 8, !tbaa !37
  %11 = getelementptr inbounds nuw %struct.AVFilterLink, ptr %10, i32 0, i32 2
  %12 = load ptr, ptr %11, align 8, !tbaa !50
  store ptr %12, ptr %5, align 8, !tbaa !4
  call void @llvm.lifetime.start.p0(i64 8, ptr %6) #10
  %13 = load ptr, ptr %5, align 8, !tbaa !4
  %14 = getelementptr inbounds nuw %struct.AVFilterContext, ptr %13, i32 0, i32 7
  %15 = load ptr, ptr %14, align 8, !tbaa !39
  %16 = getelementptr inbounds ptr, ptr %15, i64 0
  %17 = load ptr, ptr %16, align 8, !tbaa !37
  store ptr %17, ptr %6, align 8, !tbaa !37
  call void @llvm.lifetime.start.p0(i64 8, ptr %7) #10
  %18 = load ptr, ptr %5, align 8, !tbaa !4
  %19 = getelementptr inbounds nuw %struct.AVFilterContext, ptr %18, i32 0, i32 9
  %20 = load ptr, ptr %19, align 8, !tbaa !9
  store ptr %20, ptr %7, align 8, !tbaa !22
  call void @llvm.lifetime.start.p0(i64 8, ptr %8) #10
  call void @llvm.lifetime.start.p0(i64 4, ptr %9) #10
  %21 = load ptr, ptr %6, align 8, !tbaa !37
  %22 = load ptr, ptr %7, align 8, !tbaa !22
  %23 = getelementptr inbounds nuw %struct.AudioDialogueEnhancementContext, ptr %22, i32 0, i32 5
  %24 = load i32, ptr %23, align 4, !tbaa !42
  %25 = call ptr @ff_get_audio_buffer(ptr noundef %21, i32 noundef %24)
  store ptr %25, ptr %8, align 8, !tbaa !40
  %26 = load ptr, ptr %8, align 8, !tbaa !40
  %27 = icmp ne ptr %26, null
  br i1 %27, label %29, label %28

28:                                               ; preds = %2
  store i32 -12, ptr %9, align 4, !tbaa !28
  br label %50

29:                                               ; preds = %2
  %30 = load ptr, ptr %4, align 8, !tbaa !40
  %31 = load ptr, ptr %7, align 8, !tbaa !22
  %32 = getelementptr inbounds nuw %struct.AudioDialogueEnhancementContext, ptr %31, i32 0, i32 11
  store ptr %30, ptr %32, align 8, !tbaa !73
  %33 = load ptr, ptr %7, align 8, !tbaa !22
  %34 = getelementptr inbounds nuw %struct.AudioDialogueEnhancementContext, ptr %33, i32 0, i32 18
  %35 = load ptr, ptr %34, align 8, !tbaa !65
  %36 = load ptr, ptr %5, align 8, !tbaa !4
  %37 = load ptr, ptr %8, align 8, !tbaa !40
  %38 = call i32 %35(ptr noundef %36, ptr noundef %37)
  %39 = load ptr, ptr %8, align 8, !tbaa !40
  %40 = load ptr, ptr %4, align 8, !tbaa !40
  %41 = call i32 @av_frame_copy_props(ptr noundef %39, ptr noundef %40)
  %42 = load ptr, ptr %4, align 8, !tbaa !40
  %43 = getelementptr inbounds nuw %struct.AVFrame, ptr %42, i32 0, i32 5
  %44 = load i32, ptr %43, align 8, !tbaa !74
  %45 = load ptr, ptr %8, align 8, !tbaa !40
  %46 = getelementptr inbounds nuw %struct.AVFrame, ptr %45, i32 0, i32 5
  store i32 %44, ptr %46, align 8, !tbaa !74
  %47 = load ptr, ptr %6, align 8, !tbaa !37
  %48 = load ptr, ptr %8, align 8, !tbaa !40
  %49 = call i32 @ff_filter_frame(ptr noundef %47, ptr noundef %48)
  store i32 %49, ptr %9, align 4, !tbaa !28
  br label %50

50:                                               ; preds = %29, %28
  call void @av_frame_free(ptr noundef %4)
  %51 = load ptr, ptr %7, align 8, !tbaa !22
  %52 = getelementptr inbounds nuw %struct.AudioDialogueEnhancementContext, ptr %51, i32 0, i32 11
  store ptr null, ptr %52, align 8, !tbaa !73
  %53 = load i32, ptr %9, align 4, !tbaa !28
  %54 = icmp slt i32 %53, 0
  br i1 %54, label %55, label %57

55:                                               ; preds = %50
  %56 = load i32, ptr %9, align 4, !tbaa !28
  br label %58

57:                                               ; preds = %50
  br label %58

58:                                               ; preds = %57, %55
  %59 = phi i32 [ %56, %55 ], [ 0, %57 ]
  call void @llvm.lifetime.end.p0(i64 4, ptr %9) #10
  call void @llvm.lifetime.end.p0(i64 8, ptr %8) #10
  call void @llvm.lifetime.end.p0(i64 8, ptr %7) #10
  call void @llvm.lifetime.end.p0(i64 8, ptr %6) #10
  call void @llvm.lifetime.end.p0(i64 8, ptr %5) #10
  ret i32 %59
}

; Function Attrs: nounwind uwtable
define internal i32 @activate(ptr noundef %0) #1 {
  %2 = alloca i32, align 4
  %3 = alloca ptr, align 8
  %4 = alloca ptr, align 8
  %5 = alloca ptr, align 8
  %6 = alloca ptr, align 8
  %7 = alloca ptr, align 8
  %8 = alloca i32, align 4
  %9 = alloca i32, align 4
  %10 = alloca i64, align 8
  %11 = alloca i32, align 4
  %12 = alloca i32, align 4
  store ptr %0, ptr %3, align 8, !tbaa !4
  call void @llvm.lifetime.start.p0(i64 8, ptr %4) #10
  %13 = load ptr, ptr %3, align 8, !tbaa !4
  %14 = getelementptr inbounds nuw %struct.AVFilterContext, ptr %13, i32 0, i32 4
  %15 = load ptr, ptr %14, align 8, !tbaa !36
  %16 = getelementptr inbounds ptr, ptr %15, i64 0
  %17 = load ptr, ptr %16, align 8, !tbaa !37
  store ptr %17, ptr %4, align 8, !tbaa !37
  call void @llvm.lifetime.start.p0(i64 8, ptr %5) #10
  %18 = load ptr, ptr %3, align 8, !tbaa !4
  %19 = getelementptr inbounds nuw %struct.AVFilterContext, ptr %18, i32 0, i32 7
  %20 = load ptr, ptr %19, align 8, !tbaa !39
  %21 = getelementptr inbounds ptr, ptr %20, i64 0
  %22 = load ptr, ptr %21, align 8, !tbaa !37
  store ptr %22, ptr %5, align 8, !tbaa !37
  call void @llvm.lifetime.start.p0(i64 8, ptr %6) #10
  %23 = load ptr, ptr %3, align 8, !tbaa !4
  %24 = getelementptr inbounds nuw %struct.AVFilterContext, ptr %23, i32 0, i32 9
  %25 = load ptr, ptr %24, align 8, !tbaa !9
  store ptr %25, ptr %6, align 8, !tbaa !22
  call void @llvm.lifetime.start.p0(i64 8, ptr %7) #10
  store ptr null, ptr %7, align 8, !tbaa !40
  call void @llvm.lifetime.start.p0(i64 4, ptr %8) #10
  store i32 0, ptr %8, align 4, !tbaa !28
  call void @llvm.lifetime.start.p0(i64 4, ptr %9) #10
  call void @llvm.lifetime.start.p0(i64 8, ptr %10) #10
  br label %26

26:                                               ; preds = %1
  call void @llvm.lifetime.start.p0(i64 4, ptr %11) #10
  %27 = load ptr, ptr %5, align 8, !tbaa !37
  %28 = call i32 @ff_outlink_get_status(ptr noundef %27)
  store i32 %28, ptr %11, align 4, !tbaa !28
  %29 = load i32, ptr %11, align 4, !tbaa !28
  %30 = icmp ne i32 %29, 0
  br i1 %30, label %31, label %34

31:                                               ; preds = %26
  %32 = load ptr, ptr %4, align 8, !tbaa !37
  %33 = load i32, ptr %11, align 4, !tbaa !28
  call void @ff_inlink_set_status(ptr noundef %32, i32 noundef %33)
  store i32 0, ptr %2, align 4
  store i32 1, ptr %12, align 4
  br label %35

34:                                               ; preds = %26
  store i32 0, ptr %12, align 4
  br label %35

35:                                               ; preds = %34, %31
  call void @llvm.lifetime.end.p0(i64 4, ptr %11) #10
  %36 = load i32, ptr %12, align 4
  switch i32 %36, label %84 [
    i32 0, label %37
  ]

37:                                               ; preds = %35
  br label %38

38:                                               ; preds = %37
  br label %39

39:                                               ; preds = %38
  %40 = load ptr, ptr %4, align 8, !tbaa !37
  %41 = load ptr, ptr %6, align 8, !tbaa !22
  %42 = getelementptr inbounds nuw %struct.AudioDialogueEnhancementContext, ptr %41, i32 0, i32 5
  %43 = load i32, ptr %42, align 4, !tbaa !42
  %44 = load ptr, ptr %6, align 8, !tbaa !22
  %45 = getelementptr inbounds nuw %struct.AudioDialogueEnhancementContext, ptr %44, i32 0, i32 5
  %46 = load i32, ptr %45, align 4, !tbaa !42
  %47 = call i32 @ff_inlink_consume_samples(ptr noundef %40, i32 noundef %43, i32 noundef %46, ptr noundef %7)
  store i32 %47, ptr %8, align 4, !tbaa !28
  %48 = load i32, ptr %8, align 4, !tbaa !28
  %49 = icmp slt i32 %48, 0
  br i1 %49, label %50, label %52

50:                                               ; preds = %39
  %51 = load i32, ptr %8, align 4, !tbaa !28
  store i32 %51, ptr %2, align 4
  store i32 1, ptr %12, align 4
  br label %84

52:                                               ; preds = %39
  %53 = load i32, ptr %8, align 4, !tbaa !28
  %54 = icmp sgt i32 %53, 0
  br i1 %54, label %55, label %59

55:                                               ; preds = %52
  %56 = load ptr, ptr %4, align 8, !tbaa !37
  %57 = load ptr, ptr %7, align 8, !tbaa !40
  %58 = call i32 @filter_frame(ptr noundef %56, ptr noundef %57)
  store i32 %58, ptr %2, align 4
  store i32 1, ptr %12, align 4
  br label %84

59:                                               ; preds = %52
  %60 = load ptr, ptr %4, align 8, !tbaa !37
  %61 = call i32 @ff_inlink_acknowledge_status(ptr noundef %60, ptr noundef %9, ptr noundef %10)
  %62 = icmp ne i32 %61, 0
  br i1 %62, label %63, label %67

63:                                               ; preds = %59
  %64 = load ptr, ptr %5, align 8, !tbaa !37
  %65 = load i32, ptr %9, align 4, !tbaa !28
  %66 = load i64, ptr %10, align 8, !tbaa !48
  call void @ff_outlink_set_status(ptr noundef %64, i32 noundef %65, i64 noundef %66)
  store i32 0, ptr %2, align 4
  store i32 1, ptr %12, align 4
  br label %84

67:                                               ; preds = %59
  %68 = load ptr, ptr %4, align 8, !tbaa !37
  %69 = call i32 @ff_inlink_queued_samples(ptr noundef %68)
  %70 = load ptr, ptr %6, align 8, !tbaa !22
  %71 = getelementptr inbounds nuw %struct.AudioDialogueEnhancementContext, ptr %70, i32 0, i32 5
  %72 = load i32, ptr %71, align 4, !tbaa !42
  %73 = icmp sge i32 %69, %72
  br i1 %73, label %74, label %76

74:                                               ; preds = %67
  %75 = load ptr, ptr %3, align 8, !tbaa !4
  call void @ff_filter_set_ready(ptr noundef %75, i32 noundef 10)
  br label %83

76:                                               ; preds = %67
  %77 = load ptr, ptr %5, align 8, !tbaa !37
  %78 = call i32 @ff_outlink_frame_wanted(ptr noundef %77)
  %79 = icmp ne i32 %78, 0
  br i1 %79, label %80, label %82

80:                                               ; preds = %76
  %81 = load ptr, ptr %4, align 8, !tbaa !37
  call void @ff_inlink_request_frame(ptr noundef %81)
  br label %82

82:                                               ; preds = %80, %76
  br label %83

83:                                               ; preds = %82, %74
  store i32 0, ptr %2, align 4
  store i32 1, ptr %12, align 4
  br label %84

84:                                               ; preds = %83, %63, %55, %50, %35
  call void @llvm.lifetime.end.p0(i64 8, ptr %10) #10
  call void @llvm.lifetime.end.p0(i64 4, ptr %9) #10
  call void @llvm.lifetime.end.p0(i64 4, ptr %8) #10
  call void @llvm.lifetime.end.p0(i64 8, ptr %7) #10
  call void @llvm.lifetime.end.p0(i64 8, ptr %6) #10
  call void @llvm.lifetime.end.p0(i64 8, ptr %5) #10
  call void @llvm.lifetime.end.p0(i64 8, ptr %4) #10
  %85 = load i32, ptr %2, align 4
  ret i32 %85
}