; Function Attrs: nounwind uwtable
define internal range(i32 -2147483648, 1) i32 @activate(ptr noundef %0) #1 {
  %2 = alloca ptr, align 8
  %3 = alloca ptr, align 8
  %4 = alloca i32, align 4
  %5 = alloca i64, align 8
  %6 = getelementptr inbounds nuw i8, ptr %0, i64 32
  %7 = load ptr, ptr %6, align 8, !tbaa !29
  %8 = load ptr, ptr %7, align 8, !tbaa !30
  %9 = getelementptr inbounds nuw i8, ptr %0, i64 56
  %10 = load ptr, ptr %9, align 8, !tbaa !32
  %11 = load ptr, ptr %10, align 8, !tbaa !30
  %12 = getelementptr inbounds nuw i8, ptr %0, i64 72
  %13 = load ptr, ptr %12, align 8, !tbaa !4
  call void @llvm.lifetime.start.p0(i64 8, ptr nonnull %3) #9
  store ptr null, ptr %3, align 8, !tbaa !33
  call void @llvm.lifetime.start.p0(i64 4, ptr nonnull %4) #9
  call void @llvm.lifetime.start.p0(i64 8, ptr nonnull %5) #9
  %14 = tail call i32 @ff_outlink_get_status(ptr noundef %11) #9
  %.not = icmp eq i32 %14, 0
  br i1 %.not, label %.critedge, label %15

15:                                               ; preds = %1
  tail call void @ff_inlink_set_status(ptr noundef %8, i32 noundef %14) #9
  br label %56

.critedge:                                        ; preds = %1
  %16 = getelementptr inbounds nuw i8, ptr %13, i64 36
  %17 = load i32, ptr %16, align 4, !tbaa !35
  %18 = call i32 @ff_inlink_consume_samples(ptr noundef %8, i32 noundef %17, i32 noundef %17, ptr noundef nonnull %3) #9
  %19 = icmp slt i32 %18, 0
  br i1 %19, label %56, label %20

20:                                               ; preds = %.critedge
  %.not26 = icmp eq i32 %18, 0
  br i1 %.not26, label %44, label %21

21:                                               ; preds = %20
  %22 = load ptr, ptr %3, align 8, !tbaa !33
  %23 = getelementptr i8, ptr %8, i64 16
  %.val = load ptr, ptr %23, align 8, !tbaa !41
  call void @llvm.lifetime.start.p0(i64 8, ptr nonnull %2)
  store ptr %22, ptr %2, align 8, !tbaa !33
  %24 = getelementptr inbounds nuw i8, ptr %.val, i64 56
  %25 = load ptr, ptr %24, align 8, !tbaa !32
  %26 = load ptr, ptr %25, align 8, !tbaa !30
  %27 = getelementptr inbounds nuw i8, ptr %.val, i64 72
  %28 = load ptr, ptr %27, align 8, !tbaa !4
  %29 = getelementptr inbounds nuw i8, ptr %28, i64 36
  %30 = load i32, ptr %29, align 4, !tbaa !35
  %31 = call ptr @ff_get_audio_buffer(ptr noundef %26, i32 noundef %30) #9
  %.not.i = icmp eq ptr %31, null
  br i1 %.not.i, label %filter_frame.exit, label %32

32:                                               ; preds = %21
  %33 = getelementptr inbounds nuw i8, ptr %28, i64 80
  store ptr %22, ptr %33, align 8, !tbaa !48
  %34 = getelementptr inbounds nuw i8, ptr %28, i64 136
  %35 = load ptr, ptr %34, align 8, !tbaa !49
  %36 = call i32 %35(ptr noundef nonnull %.val, ptr noundef nonnull %31) #9
  %37 = call i32 @av_frame_copy_props(ptr noundef nonnull %31, ptr noundef %22) #9
  %38 = getelementptr inbounds nuw i8, ptr %22, i64 112
  %39 = load i32, ptr %38, align 8, !tbaa !50
  %40 = getelementptr inbounds nuw i8, ptr %31, i64 112
  store i32 %39, ptr %40, align 8, !tbaa !50
  %41 = call i32 @ff_filter_frame(ptr noundef %26, ptr noundef nonnull %31) #9
  br label %filter_frame.exit

filter_frame.exit:                                ; preds = %21, %32
  %.0.i = phi i32 [ %41, %32 ], [ -12, %21 ]
  call void @av_frame_free(ptr noundef nonnull %2) #9
  %42 = getelementptr inbounds nuw i8, ptr %28, i64 80
  store ptr null, ptr %42, align 8, !tbaa !48
  %43 = call range(i32 -2147483648, 1) i32 @llvm.smin.i32(i32 %.0.i, i32 0)
  call void @llvm.lifetime.end.p0(i64 8, ptr nonnull %2)
  br label %56

44:                                               ; preds = %20
  %45 = call i32 @ff_inlink_acknowledge_status(ptr noundef %8, ptr noundef nonnull %4, ptr noundef nonnull %5) #9
  %.not27 = icmp eq i32 %45, 0
  br i1 %.not27, label %49, label %46

46:                                               ; preds = %44
  %47 = load i32, ptr %4, align 4, !tbaa !56
  %48 = load i64, ptr %5, align 8, !tbaa !57
  call void @ff_avfilter_link_set_in_status(ptr noundef %11, i32 noundef %47, i64 noundef %48) #9
  br label %56

49:                                               ; preds = %44
  %50 = call i32 @ff_inlink_queued_samples(ptr noundef %8) #9
  %51 = load i32, ptr %16, align 4, !tbaa !35
  %.not28 = icmp slt i32 %50, %51
  br i1 %.not28, label %53, label %52

52:                                               ; preds = %49
  call void @ff_filter_set_ready(ptr noundef nonnull %0, i32 noundef 10) #9
  br label %56

53:                                               ; preds = %49
  %54 = call i32 @ff_outlink_frame_wanted(ptr noundef %11) #9
  %.not29 = icmp eq i32 %54, 0
  br i1 %.not29, label %56, label %55

55:                                               ; preds = %53
  call void @ff_inlink_request_frame(ptr noundef %8) #9
  br label %56

56:                                               ; preds = %15, %52, %55, %53, %.critedge, %46, %filter_frame.exit
  %.1 = phi i32 [ %43, %filter_frame.exit ], [ 0, %46 ], [ 0, %15 ], [ %18, %.critedge ], [ 0, %53 ], [ 0, %55 ], [ 0, %52 ]
  call void @llvm.lifetime.end.p0(i64 8, ptr nonnull %5) #9
  call void @llvm.lifetime.end.p0(i64 4, ptr nonnull %4) #9
  call void @llvm.lifetime.end.p0(i64 8, ptr nonnull %3) #9
  ret i32 %.1
}